target datalayout = "e-m:e-p270:32:32-p271:32:32-p272:64:64-i64:64-i128:128-f80:128-n8:16:32:64-S128"
target triple = "x86_64-pc-linux-gnu"

%struct.cb_serv_data = type { ptr, i32 }

@.str.6 = private unnamed_addr constant [2 x i8] c"/\00", align 1
@.str.54 = private unnamed_addr constant [2 x i8] c"r\00", align 1
@.str.55 = private unnamed_addr constant [3 x i8] c" \09\00", align 1
@.str.56 = private unnamed_addr constant [3 x i8] c"\0D\0A\00", align 1
@.str.86 = private unnamed_addr constant [4 x i8] c"tcp\00", align 1
@.str.87 = private unnamed_addr constant [4 x i8] c"udp\00", align 1
@.str.88 = private unnamed_addr constant [5 x i8] c"sctp\00", align 1
@.str.89 = private unnamed_addr constant [5 x i8] c"dccp\00", align 1

; Function Attrs: null_pointer_is_valid sspstrong uwtable
define internal void @parse_service_line(ptr noundef %0) #3 {
  %2 = alloca ptr, align 8
  %3 = alloca ptr, align 8
  %4 = alloca ptr, align 8
  %5 = alloca ptr, align 8
  %6 = alloca i32, align 4
  %7 = alloca %struct.cb_serv_data, align 8
  %8 = alloca ptr, align 8
  %9 = alloca i32, align 4
  store ptr %0, ptr %2, align 8
  call void @llvm.lifetime.start.p0(i64 8, ptr %3) #16
  call void @llvm.lifetime.start.p0(i64 8, ptr %4) #16
  call void @llvm.lifetime.start.p0(i64 8, ptr %5) #16
  call void @llvm.lifetime.start.p0(i64 4, ptr %6) #16
  call void @llvm.lifetime.start.p0(i64 16, ptr %7) #16
  call void @llvm.lifetime.start.p0(i64 8, ptr %8) #16
  store ptr null, ptr %8, align 8
  %10 = load ptr, ptr %2, align 8
  %11 = call ptr @strchr(ptr noundef %10, i32 noundef 35) #17
  store ptr %11, ptr %3, align 8
  %12 = icmp ne ptr %11, null
  br i1 %12, label %13, label %15

13:                                               ; preds = %1
  %14 = load ptr, ptr %3, align 8
  store i8 0, ptr %14, align 1
  br label %15

15:                                               ; preds = %13, %1
  %16 = load ptr, ptr %2, align 8
  %17 = call ptr @strtok(ptr noundef %16, ptr noundef @.str.55) #16
  store ptr %17, ptr %3, align 8
  %18 = icmp eq ptr %17, null
  br i1 %18, label %19, label %20

19:                                               ; preds = %15
  store i32 1, ptr %9, align 4
  br label %73

20:                                               ; preds = %15
  %21 = load ptr, ptr %3, align 8
  store ptr %21, ptr %4, align 8
  %22 = call ptr @strtok(ptr noundef null, ptr noundef @.str.55) #16
  store ptr %22, ptr %3, align 8
  %23 = icmp eq ptr %22, null
  br i1 %23, label %24, label %25

24:                                               ; preds = %20
  store i32 1, ptr %9, align 4
  br label %73

25:                                               ; preds = %20
  %26 = load ptr, ptr %3, align 8
  store ptr %26, ptr %5, align 8
  %27 = load ptr, ptr %3, align 8
  %28 = call ptr @strtok(ptr noundef %27, ptr noundef @.str.6) #16
  %29 = icmp eq ptr %28, null
  br i1 %29, label %30, label %31

30:                                               ; preds = %25
  store i32 1, ptr %9, align 4
  br label %73

31:                                               ; preds = %25
  %32 = load ptr, ptr %5, align 8
  %33 = call i32 @range_convert_str(ptr noundef null, ptr noundef %8, ptr noundef %32, i32 noundef 65535)
  %34 = icmp ne i32 %33, 0
  br i1 %34, label %35, label %37

35:                                               ; preds = %31
  %36 = load ptr, ptr %8, align 8
  call void @wmem_free(ptr noundef null, ptr noundef %36)
  store i32 1, ptr %9, align 4
  br label %73

37:                                               ; preds = %31
  br label %38

38:                                               ; preds = %65, %37
  %39 = call ptr @strtok(ptr noundef null, ptr noundef @.str.6) #16
  store ptr %39, ptr %3, align 8
  %40 = icmp ne ptr %39, null
  br i1 %40, label %41, label %71

41:                                               ; preds = %38
  %42 = load ptr, ptr %3, align 8
  %43 = call i32 @strcmp(ptr noundef %42, ptr noundef @.str.86) #17
  %44 = icmp eq i32 %43, 0
  br i1 %44, label %45, label %46

45:                                               ; preds = %41
  store i32 2, ptr %6, align 4
  br label %65

46:                                               ; preds = %41
  %47 = load ptr, ptr %3, align 8
  %48 = call i32 @strcmp(ptr noundef %47, ptr noundef @.str.87) #17
  %49 = icmp eq i32 %48, 0
  br i1 %49, label %50, label %51

50:                                               ; preds = %46
  store i32 3, ptr %6, align 4
  br label %64

51:                                               ; preds = %46
  %52 = load ptr, ptr %3, align 8
  %53 = call i32 @strcmp(ptr noundef %52, ptr noundef @.str.88) #17
  %54 = icmp eq i32 %53, 0
  br i1 %54, label %55, label %56

55:                                               ; preds = %51
  store i32 1, ptr %6, align 4
  br label %63

56:                                               ; preds = %51
  %57 = load ptr, ptr %3, align 8
  %58 = call i32 @strcmp(ptr noundef %57, ptr noundef @.str.89) #17
  %59 = icmp eq i32 %58, 0
  br i1 %59, label %60, label %61

60:                                               ; preds = %56
  store i32 4, ptr %6, align 4
  br label %62

61:                                               ; preds = %56
  br label %71

62:                                               ; preds = %60
  br label %63

63:                                               ; preds = %62, %55
  br label %64

64:                                               ; preds = %63, %50
  br label %65

65:                                               ; preds = %64, %45
  %66 = load ptr, ptr %4, align 8
  %67 = getelementptr inbounds nuw %struct.cb_serv_data, ptr %7, i32 0, i32 0
  store ptr %66, ptr %67, align 8
  %68 = load i32, ptr %6, align 4
  %69 = getelementptr inbounds nuw %struct.cb_serv_data, ptr %7, i32 0, i32 1
  store i32 %68, ptr %69, align 8
  %70 = load ptr, ptr %8, align 8
  call void @range_foreach(ptr noundef %70, ptr noundef @add_serv_port_cb, ptr noundef %7)
  br label %38, !llvm.loop !59

71:                                               ; preds = %61, %38
  %72 = load ptr, ptr %8, align 8
  call void @wmem_free(ptr noundef null, ptr noundef %72)
  store i32 0, ptr %9, align 4
  br label %73

73:                                               ; preds = %71, %35, %30, %24, %19
  call void @llvm.lifetime.end.p0(i64 8, ptr %8) #16
  call void @llvm.lifetime.end.p0(i64 16, ptr %7) #16
  call void @llvm.lifetime.end.p0(i64 4, ptr %6) #16
  call void @llvm.lifetime.end.p0(i64 8, ptr %5) #16
  call void @llvm.lifetime.end.p0(i64 8, ptr %4) #16
  call void @llvm.lifetime.end.p0(i64 8, ptr %3) #16
  %74 = load i32, ptr %9, align 4
  switch i32 %74, label %76 [
    i32 0, label %75
    i32 1, label %75
  ]

75:                                               ; preds = %73, %73
  ret void

76:                                               ; preds = %73
  unreachable
}

; Function Attrs: null_pointer_is_valid sspstrong uwtable
define internal i32 @fgetline(ptr noundef %0, i32 noundef %1, ptr noundef %2) #3 {
  %4 = alloca i32, align 4
  %5 = alloca ptr, align 8
  %6 = alloca i32, align 4
  %7 = alloca ptr, align 8
  %8 = alloca i32, align 4
  store ptr %0, ptr %5, align 8
  store i32 %1, ptr %6, align 4
  store ptr %2, ptr %7, align 8
  %9 = load ptr, ptr %5, align 8
  %10 = load i32, ptr %6, align 4
  %11 = load ptr, ptr %7, align 8
  %12 = call ptr @fgets(ptr noundef %9, i32 noundef %10, ptr noundef %11)
  %13 = icmp ne ptr %12, null
  br i1 %13, label %14, label %23

14:                                               ; preds = %3
  call void @llvm.lifetime.start.p0(i64 4, ptr %8) #16
  %15 = load ptr, ptr %5, align 8
  %16 = call i64 @strcspn(ptr noundef %15, ptr noundef @.str.56) #17
  %17 = trunc i64 %16 to i32
  store i32 %17, ptr %8, align 4
  %18 = load ptr, ptr %5, align 8
  %19 = load i32, ptr %8, align 4
  %20 = sext i32 %19 to i64
  %21 = getelementptr i8, ptr %18, i64 %20
  store i8 0, ptr %21, align 1
  %22 = load i32, ptr %8, align 4
  store i32 %22, ptr %4, align 4
  call void @llvm.lifetime.end.p0(i64 4, ptr %8) #16
  br label %24

23:                                               ; preds = %3
  store i32 -1, ptr %4, align 4
  br label %24

24:                                               ; preds = %23, %14
  %25 = load i32, ptr %4, align 4
  ret i32 %25
}

; Function Attrs: null_pointer_is_valid sspstrong uwtable
define internal zeroext i1 @parse_services_file(ptr noundef %0) #3 {
  %2 = alloca i1, align 1
  %3 = alloca ptr, align 8
  %4 = alloca ptr, align 8
  %5 = alloca [1024 x i8], align 16
  %6 = alloca i32, align 4
  store ptr %0, ptr %3, align 8
  call void @llvm.lifetime.start.p0(i64 8, ptr %4) #16
  call void @llvm.lifetime.start.p0(i64 1024, ptr %5) #16
  %7 = load ptr, ptr %3, align 8
  %8 = call noalias ptr @fopen(ptr noundef %7, ptr noundef @.str.54)
  store ptr %8, ptr %4, align 8
  %9 = load ptr, ptr %4, align 8
  %10 = icmp eq ptr %9, null
  br i1 %10, label %11, label %12

11:                                               ; preds = %1
  store i1 false, ptr %2, align 1
  store i32 1, ptr %6, align 4
  br label %23

12:                                               ; preds = %1
  br label %13

13:                                               ; preds = %18, %12
  %14 = getelementptr inbounds [1024 x i8], ptr %5, i64 0, i64 0
  %15 = load ptr, ptr %4, align 8
  %16 = call i32 @fgetline(ptr noundef %14, i32 noundef 1024, ptr noundef %15)
  %17 = icmp sge i32 %16, 0
  br i1 %17, label %18, label %20

18:                                               ; preds = %13
  %19 = getelementptr inbounds [1024 x i8], ptr %5, i64 0, i64 0
  call void @parse_service_line(ptr noundef %19)
  br label %13, !llvm.loop !58

20:                                               ; preds = %13
  %21 = load ptr, ptr %4, align 8
  %22 = call i32 @fclose(ptr noundef %21)
  store i1 true, ptr %2, align 1
  store i32 1, ptr %6, align 4
  br label %23

23:                                               ; preds = %20, %11
  call void @llvm.lifetime.end.p0(i64 1024, ptr %5) #16
  call void @llvm.lifetime.end.p0(i64 8, ptr %4) #16
  %24 = load i1, ptr %2, align 1
  ret i1 %24
}