; Function Attrs: null_pointer_is_valid sspstrong uwtable
define internal fastcc noundef zeroext i1 @parse_services_file(ptr noundef readonly captures(none) %0) unnamed_addr #3 {
  %2 = alloca %struct.cb_serv_data, align 8
  %3 = alloca ptr, align 8
  %4 = alloca [1024 x i8], align 16
  call void @llvm.lifetime.start.p0(i64 1024, ptr nonnull %4) #24
  %5 = tail call noalias ptr @fopen(ptr noundef %0, ptr noundef nonnull @.str.54)
  %6 = icmp ne ptr %5, null
  br i1 %6, label %.split5, label %51

.split5:                                          ; preds = %1
  %7 = call ptr @fgets(ptr noundef nonnull %4, i32 noundef 1024, ptr noundef nonnull %5)
  %.not.i = icmp eq ptr %7, null
  br i1 %.not.i, label %._crit_edge, label %fgetline.exit

fgetline.exit:                                    ; preds = %.split5
  %8 = call i64 @strcspn(ptr noundef nonnull %4, ptr noundef nonnull @.str.56) #28
  %sext.i = shl i64 %8, 32
  %9 = ashr exact i64 %sext.i, 32
  %10 = getelementptr i8, ptr %4, i64 %9
  store i8 0, ptr %10, align 1
  %11 = and i64 %8, 2147483648
  %12 = icmp eq i64 %11, 0
  br i1 %12, label %.split.lr.ph, label %._crit_edge

.split.lr.ph:                                     ; preds = %fgetline.exit
  %13 = getelementptr inbounds nuw i8, ptr %2, i64 8
  br label %.split

.split:                                           ; preds = %.split.lr.ph, %fgetline.exit12
  call void @llvm.lifetime.start.p0(i64 16, ptr nonnull %2) #24
  call void @llvm.lifetime.start.p0(i64 8, ptr nonnull %3) #24
  store ptr null, ptr %3, align 8
  %14 = call ptr @strchr(ptr noundef nonnull dereferenceable(1) %4, i32 noundef 35) #28
  %.not.i7 = icmp eq ptr %14, null
  br i1 %.not.i7, label %16, label %15

15:                                               ; preds = %.split
  store i8 0, ptr %14, align 1
  br label %16

16:                                               ; preds = %15, %.split
  %17 = call ptr @strtok(ptr noundef nonnull %4, ptr noundef nonnull @.str.55) #24
  %18 = icmp eq ptr %17, null
  br i1 %18, label %parse_service_line.exit, label %19

19:                                               ; preds = %16
  %20 = call ptr @strtok(ptr noundef null, ptr noundef nonnull @.str.55) #24
  %21 = icmp eq ptr %20, null
  br i1 %21, label %parse_service_line.exit, label %22

22:                                               ; preds = %19
  %23 = call ptr @strtok(ptr noundef nonnull %20, ptr noundef nonnull @.str.6) #24
  %24 = icmp eq ptr %23, null
  br i1 %24, label %parse_service_line.exit, label %25

25:                                               ; preds = %22
  %26 = call i32 @range_convert_str(ptr noundef null, ptr noundef nonnull %3, ptr noundef nonnull %20, i32 noundef 65535)
  %.not16.i = icmp eq i32 %26, 0
  br i1 %.not16.i, label %.preheader.i, label %.sink.split.i

.preheader.i:                                     ; preds = %25
  %27 = call ptr @strtok(ptr noundef null, ptr noundef nonnull @.str.6) #24
  %.not1718.i = icmp eq ptr %27, null
  br i1 %.not1718.i, label %.sink.split.i, label %.lr.ph.i

.lr.ph.i:                                         ; preds = %.preheader.i, %40
  %28 = phi ptr [ %42, %40 ], [ %27, %.preheader.i ]
  %29 = call i32 @strcmp(ptr noundef nonnull dereferenceable(1) %28, ptr noundef nonnull dereferenceable(4) @.str.86) #28
  %30 = icmp eq i32 %29, 0
  br i1 %30, label %40, label %31

31:                                               ; preds = %.lr.ph.i
  %32 = call i32 @strcmp(ptr noundef nonnull dereferenceable(1) %28, ptr noundef nonnull dereferenceable(4) @.str.87) #28
  %33 = icmp eq i32 %32, 0
  br i1 %33, label %40, label %34

34:                                               ; preds = %31
  %35 = call i32 @strcmp(ptr noundef nonnull dereferenceable(1) %28, ptr noundef nonnull dereferenceable(5) @.str.88) #28
  %36 = icmp eq i32 %35, 0
  br i1 %36, label %40, label %37

37:                                               ; preds = %34
  %38 = call i32 @strcmp(ptr noundef nonnull dereferenceable(1) %28, ptr noundef nonnull dereferenceable(5) @.str.89) #28
  %39 = icmp eq i32 %38, 0
  br i1 %39, label %40, label %.sink.split.i

40:                                               ; preds = %37, %34, %31, %.lr.ph.i
  %.0.i8 = phi i32 [ 2, %.lr.ph.i ], [ 3, %31 ], [ 1, %34 ], [ 4, %37 ]
  store ptr %17, ptr %2, align 8
  store i32 %.0.i8, ptr %13, align 8
  %41 = load ptr, ptr %3, align 8
  call void @range_foreach(ptr noundef %41, ptr noundef nonnull @add_serv_port_cb, ptr noundef nonnull %2)
  %42 = call ptr @strtok(ptr noundef null, ptr noundef nonnull @.str.6) #24
  %.not17.i = icmp eq ptr %42, null
  br i1 %.not17.i, label %.sink.split.i, label %.lr.ph.i, !llvm.loop !66

.sink.split.i:                                    ; preds = %40, %37, %.preheader.i, %25
  %43 = load ptr, ptr %3, align 8
  call void @wmem_free(ptr noundef null, ptr noundef %43)
  br label %parse_service_line.exit

parse_service_line.exit:                          ; preds = %16, %19, %22, %.sink.split.i
  call void @llvm.lifetime.end.p0(i64 8, ptr nonnull %3) #24
  call void @llvm.lifetime.end.p0(i64 16, ptr nonnull %2) #24
  %44 = call ptr @fgets(ptr noundef nonnull %4, i32 noundef 1024, ptr noundef nonnull %5)
  %.not.i9 = icmp eq ptr %44, null
  br i1 %.not.i9, label %._crit_edge, label %fgetline.exit12

fgetline.exit12:                                  ; preds = %parse_service_line.exit
  %45 = call i64 @strcspn(ptr noundef nonnull %4, ptr noundef nonnull @.str.56) #28
  %sext.i10 = shl i64 %45, 32
  %46 = ashr exact i64 %sext.i10, 32
  %47 = getelementptr i8, ptr %4, i64 %46
  store i8 0, ptr %47, align 1
  %48 = and i64 %45, 2147483648
  %49 = icmp eq i64 %48, 0
  br i1 %49, label %.split, label %._crit_edge, !llvm.loop !67

._crit_edge:                                      ; preds = %parse_service_line.exit, %fgetline.exit12, %.split5, %fgetline.exit
  %50 = call i32 @fclose(ptr noundef nonnull %5)
  br label %51

51:                                               ; preds = %1, %._crit_edge
  call void @llvm.lifetime.end.p0(i64 1024, ptr nonnull %4) #24
  ret i1 %6
}